; Function Attrs: mustprogress nofree norecurse nosync nounwind willreturn memory(argmem: readwrite) uwtable
define void @_ZN16b2PulleyJointDef10InitializeEP6b2BodyS1_RK6b2Vec2S4_S4_S4_f(ptr nocapture noundef nonnull writeonly align 8 dereferenceable(80) %this, ptr noundef %bA, ptr noundef %bB, ptr nocapture noundef nonnull readonly align 4 dereferenceable(8) %groundA, ptr nocapture noundef nonnull readonly align 4 dereferenceable(8) %groundB, ptr nocapture noundef nonnull readonly align 4 dereferenceable(8) %anchorA, ptr nocapture noundef nonnull readonly align 4 dereferenceable(8) %anchorB, float noundef %r) local_unnamed_addr #0 align 2 {
entry:
  %bodyA = getelementptr inbounds i8, ptr %this, i64 16
  store ptr %bA, ptr %bodyA, align 8
  %bodyB = getelementptr inbounds i8, ptr %this, i64 24
  store ptr %bB, ptr %bodyB, align 8
  %groundAnchorA = getelementptr inbounds i8, ptr %this, i64 36
  %0 = load i64, ptr %groundA, align 4
  store i64 %0, ptr %groundAnchorA, align 4
  %groundAnchorB = getelementptr inbounds i8, ptr %this, i64 44
  %1 = load i64, ptr %groundB, align 4
  store i64 %1, ptr %groundAnchorB, align 4
  %m_xf.i = getelementptr inbounds i8, ptr %bA, i64 12
  %2 = load float, ptr %anchorA, align 4
  %3 = load float, ptr %m_xf.i, align 4
  %sub.i.i = fsub float %2, %3
  %y.i.i = getelementptr inbounds i8, ptr %anchorA, i64 4
  %4 = load float, ptr %y.i.i, align 4
  %y3.i.i = getelementptr inbounds i8, ptr %bA, i64 16
  %5 = load float, ptr %y3.i.i, align 4
  %sub4.i.i = fsub float %4, %5
  %q.i.i = getelementptr inbounds i8, ptr %bA, i64 20
  %6 = load <2 x float>, ptr %q.i.i, align 4
  %7 = extractelement <2 x float> %6, i64 0
  %fneg.i.i = fneg float %7
  %8 = insertelement <2 x float> poison, float %sub4.i.i, i64 0
  %9 = shufflevector <2 x float> %8, <2 x float> poison, <2 x i32> zeroinitializer
  %10 = fmul <2 x float> %9, %6
  %11 = shufflevector <2 x float> %6, <2 x float> poison, <2 x i32> <i32 1, i32 poison>
  %12 = insertelement <2 x float> %11, float %fneg.i.i, i64 1
  %13 = insertelement <2 x float> poison, float %sub.i.i, i64 0
  %14 = shufflevector <2 x float> %13, <2 x float> poison, <2 x i32> zeroinitializer
  %15 = tail call <2 x float> @llvm.fmuladd.v2f32(<2 x float> %12, <2 x float> %14, <2 x float> %10)
  %localAnchorA = getelementptr inbounds i8, ptr %this, i64 52
  store <2 x float> %15, ptr %localAnchorA, align 4
  %m_xf.i5 = getelementptr inbounds i8, ptr %bB, i64 12
  %16 = load float, ptr %anchorB, align 4
  %17 = load float, ptr %m_xf.i5, align 4
  %sub.i.i6 = fsub float %16, %17
  %y.i.i7 = getelementptr inbounds i8, ptr %anchorB, i64 4
  %18 = load float, ptr %y.i.i7, align 4
  %y3.i.i8 = getelementptr inbounds i8, ptr %bB, i64 16
  %19 = load float, ptr %y3.i.i8, align 4
  %sub4.i.i9 = fsub float %18, %19
  %q.i.i10 = getelementptr inbounds i8, ptr %bB, i64 20
  %20 = load <2 x float>, ptr %q.i.i10, align 4
  %21 = extractelement <2 x float> %20, i64 0
  %fneg.i.i13 = fneg float %21
  %22 = insertelement <2 x float> poison, float %sub4.i.i9, i64 0
  %23 = shufflevector <2 x float> %22, <2 x float> poison, <2 x i32> zeroinitializer
  %24 = fmul <2 x float> %23, %20
  %25 = shufflevector <2 x float> %20, <2 x float> poison, <2 x i32> <i32 1, i32 poison>
  %26 = insertelement <2 x float> %25, float %fneg.i.i13, i64 1
  %27 = insertelement <2 x float> poison, float %sub.i.i6, i64 0
  %28 = shufflevector <2 x float> %27, <2 x float> poison, <2 x i32> zeroinitializer
  %29 = tail call <2 x float> @llvm.fmuladd.v2f32(<2 x float> %26, <2 x float> %28, <2 x float> %24)
  %localAnchorB = getelementptr inbounds i8, ptr %this, i64 60
  store <2 x float> %29, ptr %localAnchorB, align 4
  %30 = load float, ptr %anchorA, align 4
  %31 = load float, ptr %groundA, align 4
  %sub.i = fsub float %30, %31
  %32 = load float, ptr %y.i.i, align 4
  %y2.i = getelementptr inbounds i8, ptr %groundA, i64 4
  %33 = load float, ptr %y2.i, align 4
  %sub3.i = fsub float %32, %33
  %mul4.i = fmul float %sub3.i, %sub3.i
  %34 = tail call float @llvm.fmuladd.f32(float %sub.i, float %sub.i, float %mul4.i)
  %sqrt.i = tail call noundef float @llvm.sqrt.f32(float %34)
  %lengthA = getelementptr inbounds i8, ptr %this, i64 68
  store float %sqrt.i, ptr %lengthA, align 4
  %35 = load float, ptr %anchorB, align 4
  %36 = load float, ptr %groundB, align 4
  %sub.i18 = fsub float %35, %36
  %37 = load float, ptr %y.i.i7, align 4
  %y2.i20 = getelementptr inbounds i8, ptr %groundB, i64 4
  %38 = load float, ptr %y2.i20, align 4
  %sub3.i21 = fsub float %37, %38
  %mul4.i25 = fmul float %sub3.i21, %sub3.i21
  %39 = tail call float @llvm.fmuladd.f32(float %sub.i18, float %sub.i18, float %mul4.i25)
  %sqrt.i26 = tail call noundef float @llvm.sqrt.f32(float %39)
  %lengthB = getelementptr inbounds i8, ptr %this, i64 72
  store float %sqrt.i26, ptr %lengthB, align 8
  %ratio = getelementptr inbounds i8, ptr %this, i64 76
  store float %r, ptr %ratio, align 4
  ret void
}